; ModuleID = '6/3553.c'
source_filename = "6/3553.c"
target datalayout = "e-m:e-p270:32:32-p271:32:32-p272:64:64-i64:64-f80:128-n8:16:32:64-S128"
target triple = "x86_64-pc-linux-gnu"

@.str = private unnamed_addr constant [3 x i8] c"%d\00", align 1
@.str.1 = private unnamed_addr constant [6 x i8] c"%d %d\00", align 1
@.str.2 = private unnamed_addr constant [4 x i8] c"%d\0A\00", align 1

; Function Attrs: noinline nounwind uwtable
define dso_local void @main() #0 {
  %1 = alloca i32*, align 8
  %2 = alloca i32, align 4
  %3 = alloca i32, align 4
  %4 = alloca i32, align 4
  %5 = alloca i32, align 4
  %6 = alloca i32, align 4
  %7 = alloca i32, align 4
  %8 = alloca i32, align 4
  %9 = alloca i32, align 4
  %10 = alloca i32*, align 8
  store i32 0, i32* %2, align 4
  store i32 0, i32* %3, align 4
  store i32 1, i32* %4, align 4
  store i32 0, i32* %5, align 4
  %11 = call i32 (i8*, ...) @__isoc99_scanf(i8* getelementptr inbounds ([3 x i8], [3 x i8]* @.str, i64 0, i64 0), i32* %4)
  store i32 0, i32* %9, align 4
  br label %12

12:                                               ; preds = %84, %0
  %13 = load i32, i32* %9, align 4
  %14 = load i32, i32* %4, align 4
  %15 = icmp slt i32 %13, %14
  br i1 %15, label %16, label %87

16:                                               ; preds = %12
  store i32 0, i32* %5, align 4
  %17 = call i32 (i8*, ...) @__isoc99_scanf(i8* getelementptr inbounds ([6 x i8], [6 x i8]* @.str.1, i64 0, i64 0), i32* %7, i32* %6)
  %18 = load i32, i32* %6, align 4
  %19 = load i32, i32* %7, align 4
  %20 = mul nsw i32 %18, %19
  %21 = sext i32 %20 to i64
  %22 = mul i64 %21, 4
  %23 = call noalias i8* @malloc(i64 %22) #3
  %24 = bitcast i8* %23 to i32*
  store i32* %24, i32** %10, align 8
  %25 = load i32*, i32** %10, align 8
  store i32* %25, i32** %1, align 8
  store i32 0, i32* %8, align 4
  br label %26

26:                                               ; preds = %35, %16
  %27 = load i32, i32* %8, align 4
  %28 = load i32, i32* %7, align 4
  %29 = load i32, i32* %6, align 4
  %30 = mul nsw i32 %28, %29
  %31 = icmp slt i32 %27, %30
  br i1 %31, label %32, label %40

32:                                               ; preds = %26
  %33 = load i32*, i32** %1, align 8
  %34 = call i32 (i8*, ...) @__isoc99_scanf(i8* getelementptr inbounds ([3 x i8], [3 x i8]* @.str, i64 0, i64 0), i32* %33)
  br label %35

35:                                               ; preds = %32
  %36 = load i32, i32* %8, align 4
  %37 = add nsw i32 %36, 1
  store i32 %37, i32* %8, align 4
  %38 = load i32*, i32** %1, align 8
  %39 = getelementptr inbounds i32, i32* %38, i32 1
  store i32* %39, i32** %1, align 8
  br label %26

40:                                               ; preds = %26
  %41 = load i32*, i32** %10, align 8
  store i32* %41, i32** %1, align 8
  store i32 0, i32* %3, align 4
  br label %42

42:                                               ; preds = %78, %40
  %43 = load i32, i32* %3, align 4
  %44 = load i32, i32* %7, align 4
  %45 = load i32, i32* %6, align 4
  %46 = mul nsw i32 %44, %45
  %47 = icmp slt i32 %43, %46
  br i1 %47, label %48, label %81

48:                                               ; preds = %42
  %49 = load i32, i32* %3, align 4
  %50 = add nsw i32 %49, 1
  store i32 %50, i32* %3, align 4
  %51 = load i32, i32* %3, align 4
  %52 = load i32, i32* %6, align 4
  %53 = add nsw i32 %52, 1
  %54 = icmp slt i32 %51, %53
  br i1 %54, label %72, label %55

55:                                               ; preds = %48
  %56 = load i32, i32* %3, align 4
  %57 = load i32, i32* %7, align 4
  %58 = sub nsw i32 %57, 1
  %59 = load i32, i32* %6, align 4
  %60 = mul nsw i32 %58, %59
  %61 = icmp sgt i32 %56, %60
  br i1 %61, label %72, label %62

62:                                               ; preds = %55
  %63 = load i32, i32* %3, align 4
  %64 = load i32, i32* %6, align 4
  %65 = srem i32 %63, %64
  %66 = icmp eq i32 %65, 1
  br i1 %66, label %72, label %67

67:                                               ; preds = %62
  %68 = load i32, i32* %3, align 4
  %69 = load i32, i32* %6, align 4
  %70 = srem i32 %68, %69
  %71 = icmp eq i32 %70, 0
  br i1 %71, label %72, label %77

72:                                               ; preds = %67, %62, %55, %48
  %73 = load i32, i32* %5, align 4
  %74 = load i32*, i32** %1, align 8
  %75 = load i32, i32* %74, align 4
  %76 = add nsw i32 %73, %75
  store i32 %76, i32* %5, align 4
  br label %77

77:                                               ; preds = %72, %67
  br label %78

78:                                               ; preds = %77
  %79 = load i32*, i32** %1, align 8
  %80 = getelementptr inbounds i32, i32* %79, i32 1
  store i32* %80, i32** %1, align 8
  br label %42

81:                                               ; preds = %42
  %82 = load i32, i32* %5, align 4
  %83 = call i32 (i8*, ...) @printf(i8* getelementptr inbounds ([4 x i8], [4 x i8]* @.str.2, i64 0, i64 0), i32 %82)
  br label %84

84:                                               ; preds = %81
  %85 = load i32, i32* %9, align 4
  %86 = add nsw i32 %85, 1
  store i32 %86, i32* %9, align 4
  br label %12

87:                                               ; preds = %12
  ret void
}

declare dso_local i32 @__isoc99_scanf(i8*, ...) #1

; Function Attrs: nounwind
declare dso_local noalias i8* @malloc(i64) #2

declare dso_local i32 @printf(i8*, ...) #1


!llvm.module.flags = !{!0}
!llvm.ident = !{!1}

!0 = !{i32 1, !"wchar_size", i32 4}
!1 = !{!"clang version 10.0.0-4ubuntu1 "}
