; ModuleID = 'source-C-CXX/5/3553.c'
source_filename = "source-C-CXX/5/3553.c"
target datalayout = "e-m:e-p270:32:32-p271:32:32-p272:64:64-i64:64-f80:128-n8:16:32:64-S128"
target triple = "x86_64-pc-linux-gnu"

@.str = private unnamed_addr constant [3 x i8] c"%d\00", align 1
@.str.1 = private unnamed_addr constant [6 x i8] c"%d %d\00", align 1
@.str.2 = private unnamed_addr constant [4 x i8] c"%d\0A\00", align 1

; Function Attrs: nofree nounwind sspstrong uwtable
define dso_local void @main() local_unnamed_addr #0 {
  %1 = alloca i32, align 4
  %2 = alloca i32, align 4
  %3 = alloca i32, align 4
  %4 = bitcast i32* %1 to i8*
  call void @llvm.lifetime.start.p0i8(i64 4, i8* nonnull %4) #4
  store i32 1, i32* %1, align 4, !tbaa !5
  %5 = bitcast i32* %2 to i8*
  call void @llvm.lifetime.start.p0i8(i64 4, i8* nonnull %5) #4
  %6 = bitcast i32* %3 to i8*
  call void @llvm.lifetime.start.p0i8(i64 4, i8* nonnull %6) #4
  %7 = call i32 (i8*, ...) @__isoc99_scanf(i8* getelementptr inbounds ([3 x i8], [3 x i8]* @.str, i64 0, i64 0), i32* nonnull %1)
  %8 = load i32, i32* %1, align 4, !tbaa !5
  %9 = icmp sgt i32 %8, 0
  br i1 %9, label %10, label %59

10:                                               ; preds = %0, %53
  %11 = phi i32 [ %56, %53 ], [ 0, %0 ]
  %12 = call i32 (i8*, ...) @__isoc99_scanf(i8* getelementptr inbounds ([6 x i8], [6 x i8]* @.str.1, i64 0, i64 0), i32* nonnull %3, i32* nonnull %2)
  %13 = load i32, i32* %2, align 4, !tbaa !5
  %14 = load i32, i32* %3, align 4, !tbaa !5
  %15 = mul nsw i32 %14, %13
  %16 = sext i32 %15 to i64
  %17 = shl nsw i64 %16, 2
  %18 = call noalias align 16 i8* @malloc(i64 %17) #4
  %19 = bitcast i8* %18 to i32*
  %20 = icmp sgt i32 %15, 0
  br i1 %20, label %25, label %53

21:                                               ; preds = %25
  %22 = add nsw i32 %31, -1
  %23 = mul nsw i32 %22, %32
  %24 = icmp sgt i32 %33, 0
  br i1 %24, label %35, label %53

25:                                               ; preds = %10, %25
  %26 = phi i32* [ %30, %25 ], [ %19, %10 ]
  %27 = phi i32 [ %29, %25 ], [ 0, %10 ]
  %28 = call i32 (i8*, ...) @__isoc99_scanf(i8* getelementptr inbounds ([3 x i8], [3 x i8]* @.str, i64 0, i64 0), i32* %26)
  %29 = add nuw nsw i32 %27, 1
  %30 = getelementptr inbounds i32, i32* %26, i64 1
  %31 = load i32, i32* %3, align 4, !tbaa !5
  %32 = load i32, i32* %2, align 4, !tbaa !5
  %33 = mul nsw i32 %32, %31
  %34 = icmp slt i32 %29, %33
  br i1 %34, label %25, label %21, !llvm.loop !9

35:                                               ; preds = %21, %49
  %36 = phi i32* [ %51, %49 ], [ %19, %21 ]
  %37 = phi i32 [ %50, %49 ], [ 0, %21 ]
  %38 = phi i32 [ %39, %49 ], [ 0, %21 ]
  %39 = add nuw nsw i32 %38, 1
  %40 = icmp sge i32 %38, %32
  %41 = icmp slt i32 %38, %23
  %42 = select i1 %40, i1 %41, i1 false
  br i1 %42, label %43, label %46

43:                                               ; preds = %35
  %44 = srem i32 %39, %32
  %45 = icmp ult i32 %44, 2
  br i1 %45, label %46, label %49

46:                                               ; preds = %43, %35
  %47 = load i32, i32* %36, align 4, !tbaa !5
  %48 = add nsw i32 %47, %37
  br label %49

49:                                               ; preds = %43, %46
  %50 = phi i32 [ %48, %46 ], [ %37, %43 ]
  %51 = getelementptr inbounds i32, i32* %36, i64 1
  %52 = icmp eq i32 %39, %33
  br i1 %52, label %53, label %35, !llvm.loop !11

53:                                               ; preds = %49, %10, %21
  %54 = phi i32 [ 0, %21 ], [ 0, %10 ], [ %50, %49 ]
  %55 = call i32 (i8*, ...) @printf(i8* nonnull dereferenceable(1) getelementptr inbounds ([4 x i8], [4 x i8]* @.str.2, i64 0, i64 0), i32 %54)
  %56 = add nuw nsw i32 %11, 1
  %57 = load i32, i32* %1, align 4, !tbaa !5
  %58 = icmp slt i32 %56, %57
  br i1 %58, label %10, label %59, !llvm.loop !12

59:                                               ; preds = %53, %0
  call void @llvm.lifetime.end.p0i8(i64 4, i8* nonnull %6) #4
  call void @llvm.lifetime.end.p0i8(i64 4, i8* nonnull %5) #4
  call void @llvm.lifetime.end.p0i8(i64 4, i8* nonnull %4) #4
  ret void
}

; Function Attrs: argmemonly mustprogress nofree nosync nounwind willreturn
declare void @llvm.lifetime.start.p0i8(i64 immarg, i8* nocapture) #1

; Function Attrs: nofree nounwind
declare noundef i32 @__isoc99_scanf(i8* nocapture noundef readonly, ...) local_unnamed_addr #2

; Function Attrs: inaccessiblememonly mustprogress nofree nounwind willreturn
declare noalias noundef align 16 i8* @malloc(i64 noundef) local_unnamed_addr #3

; Function Attrs: nofree nounwind
declare noundef i32 @printf(i8* nocapture noundef readonly, ...) local_unnamed_addr #2

; Function Attrs: argmemonly mustprogress nofree nosync nounwind willreturn
declare void @llvm.lifetime.end.p0i8(i64 immarg, i8* nocapture) #1


!llvm.module.flags = !{!0, !1, !2, !3}
!llvm.ident = !{!4}

!0 = !{i32 1, !"wchar_size", i32 4}
!1 = !{i32 7, !"PIC Level", i32 2}
!2 = !{i32 7, !"PIE Level", i32 2}
!3 = !{i32 7, !"uwtable", i32 1}
!4 = !{!"clang version 13.0.0"}
!5 = !{!6, !6, i64 0}
!6 = !{!"int", !7, i64 0}
!7 = !{!"omnipotent char", !8, i64 0}
!8 = !{!"Simple C/C++ TBAA"}
!9 = distinct !{!9, !10}
!10 = !{!"llvm.loop.mustprogress"}
!11 = distinct !{!11, !10}
!12 = distinct !{!12, !10}
